target datalayout = "e-m:e-p270:32:32-p271:32:32-p272:64:64-i64:64-i128:128-f80:128-n8:16:32:64-S128"
target triple = "x86_64-pc-linux-gnu"

%struct.SDL_Rect = type { i32, i32, i32, i32 }
%struct.SDL_VideoData = type { ptr, ptr, i32, ptr, i64, i32, ptr, i32, i64, i64, %struct.X11_ClipboardData, %struct.X11_ClipboardData, ptr, i64, %struct.X11_SettingsData, i8, %struct.anon.1, [256 x i32], i8, i8, i8, i64, i8, %struct.SDL_Point, i32, ptr, i32, i8, i32, %struct.anon.2, i8, i64, ptr, ptr, i8, i8, i8 }
%struct.X11_ClipboardData = type { ptr, ptr, ptr, i64, i32 }
%struct.X11_SettingsData = type { ptr }
%struct.anon.1 = type { i64, i64, i64, i64, i64, i64, i64, i64, i64, i64, i64, i64, i64, i64, i64, i64, i64, i64, i64, i64, i64, i64, i64, i64, i64, i64, i64, i64, i64, i64, i64, i64, i64, i64, i64, i64, i64, i64, i64, i64, i64, i64, i64, i64, i64, i64, i64, i64, i64, i64, i64, i64, i64 }
%struct.SDL_Point = type { i32, i32 }
%struct.anon.2 = type { ptr, i32, i32, i32, i16, i32, i32 }
%struct._XSyncValue = type { i32, i32 }
%struct.SDL_Window = type { i32, ptr, ptr, i32, i32, i32, i32, i32, i32, i32, i32, float, float, i32, i32, i64, i64, float, i8, i8, i32, i32, %struct.SDL_Rect, %struct.SDL_Rect, %struct.SDL_Rect, i8, i8, i8, %struct.SDL_DisplayMode, %struct.SDL_DisplayMode, %struct.SDL_HDROutputProperties, float, ptr, i8, i8, i8, i8, i8, i8, i8, i8, i8, i32, i32, i32, i32, %struct.SDL_Rect, i32, i8, %struct.SDL_Rect, i32, %struct.SDL_Rect, ptr, ptr, i32, float, i32, i32, ptr, ptr, ptr, ptr, ptr, ptr, ptr, ptr, ptr }
%struct.SDL_DisplayMode = type { i32, i32, i32, i32, float, float, i32, i32, ptr }
%struct.SDL_HDROutputProperties = type { float, float }
%struct.SDL_WindowData = type { ptr, i64, ptr, i64, i8, %struct.XShmSegmentInfo, ptr, ptr, ptr, i8, i32, i32, i32, i32, i8, i8, i8, i64, i32, i64, i8, %struct.SDL_Point, %struct.XConfigureEvent, %struct.XConfigureEvent, ptr, i64, i64, i64, i8, i64, ptr, i8, [4 x i64], %struct.SDL_Rect, i64, %struct._XSyncValue, i8, %struct.SDL_Rect, %struct.SDL_DisplayMode, i32, i32, i8, i8, i8, i8, i8, i8, i8, i8, i32, %struct.XPoint, ptr, ptr, i32, i32, i8 }
%struct.XShmSegmentInfo = type { i64, i32, ptr, i32 }
%struct.XConfigureEvent = type { i32, i64, i32, ptr, i64, i64, i32, i32, i32, i32, i32, i64, i32 }
%struct.XPoint = type { i16, i16 }

@xsync_initialized = internal global i8 0, align 1
@.str.1 = private unnamed_addr constant [32 x i8] c"That operation is not supported\00", align 1
@X11_XSyncCreateCounter = external global ptr, align 8
@X11_XChangeProperty = external global ptr, align 8

; Function Attrs: nounwind uwtable
define hidden zeroext i1 @X11_XsyncIsInitialized() #0 {
  %1 = load i8, ptr @xsync_initialized, align 1, !range !3, !noundef !4
  %2 = trunc i8 %1 to i1
  ret i1 %2
}

; Function Attrs: nounwind uwtable
define hidden zeroext i1 @X11_InitResizeSync(ptr noundef %0) #0 {
  %2 = alloca i1, align 1
  %3 = alloca ptr, align 8
  %4 = alloca ptr, align 8
  %5 = alloca ptr, align 8
  %6 = alloca i64, align 8
  %7 = alloca i64, align 8
  %8 = alloca i32, align 4
  %9 = alloca i32, align 4
  %10 = alloca %struct._XSyncValue, align 4
  store ptr %0, ptr %3, align 8
  br label %11

11:                                               ; preds = %1
  br label %12

12:                                               ; preds = %11
  call void @llvm.lifetime.start.p0(i64 8, ptr %4) #3
  %13 = load ptr, ptr %3, align 8
  %14 = getelementptr inbounds nuw %struct.SDL_Window, ptr %13, i32 0, i32 59
  %15 = load ptr, ptr %14, align 8
  store ptr %15, ptr %4, align 8
  call void @llvm.lifetime.start.p0(i64 8, ptr %5) #3
  %16 = load ptr, ptr %4, align 8
  %17 = getelementptr inbounds nuw %struct.SDL_WindowData, ptr %16, i32 0, i32 24
  %18 = load ptr, ptr %17, align 8
  %19 = getelementptr inbounds nuw %struct.SDL_VideoData, ptr %18, i32 0, i32 0
  %20 = load ptr, ptr %19, align 8
  store ptr %20, ptr %5, align 8
  call void @llvm.lifetime.start.p0(i64 8, ptr %6) #3
  %21 = load ptr, ptr %4, align 8
  %22 = getelementptr inbounds nuw %struct.SDL_WindowData, ptr %21, i32 0, i32 24
  %23 = load ptr, ptr %22, align 8
  %24 = getelementptr inbounds nuw %struct.SDL_VideoData, ptr %23, i32 0, i32 16
  %25 = getelementptr inbounds nuw %struct.anon.1, ptr %24, i32 0, i32 23
  %26 = load i64, ptr %25, align 8
  store i64 %26, ptr %6, align 8
  call void @llvm.lifetime.start.p0(i64 8, ptr %7) #3
  call void @llvm.lifetime.start.p0(i64 4, ptr %8) #3
  %27 = call zeroext i1 @X11_XsyncIsInitialized()
  br i1 %27, label %30, label %28

28:                                               ; preds = %12
  %29 = call zeroext i1 (ptr, ...) @SDL_SetError_REAL(ptr noundef @.str.1)
  store i1 %29, ptr %2, align 1
  store i32 1, ptr %9, align 4
  br label %62

30:                                               ; preds = %12
  %31 = load ptr, ptr @X11_XSyncCreateCounter, align 8
  %32 = load ptr, ptr %5, align 8
  %33 = getelementptr inbounds nuw %struct._XSyncValue, ptr %10, i32 0, i32 0
  store i32 0, ptr %33, align 4
  %34 = getelementptr inbounds nuw %struct._XSyncValue, ptr %10, i32 0, i32 1
  store i32 0, ptr %34, align 4
  %35 = load i64, ptr %10, align 4
  %36 = call i64 %31(ptr noundef %32, i64 %35)
  store i64 %36, ptr %7, align 8
  %37 = load i64, ptr %7, align 8
  %38 = load ptr, ptr %4, align 8
  %39 = getelementptr inbounds nuw %struct.SDL_WindowData, ptr %38, i32 0, i32 34
  store i64 %37, ptr %39, align 8
  %40 = load ptr, ptr %4, align 8
  %41 = getelementptr inbounds nuw %struct.SDL_WindowData, ptr %40, i32 0, i32 35
  %42 = getelementptr inbounds nuw %struct._XSyncValue, ptr %41, i32 0, i32 1
  store i32 0, ptr %42, align 4
  %43 = load ptr, ptr %4, align 8
  %44 = getelementptr inbounds nuw %struct.SDL_WindowData, ptr %43, i32 0, i32 35
  %45 = getelementptr inbounds nuw %struct._XSyncValue, ptr %44, i32 0, i32 0
  store i32 0, ptr %45, align 8
  %46 = load ptr, ptr %4, align 8
  %47 = getelementptr inbounds nuw %struct.SDL_WindowData, ptr %46, i32 0, i32 36
  store i8 0, ptr %47, align 8
  %48 = load i64, ptr %7, align 8
  %49 = icmp eq i64 %48, 0
  br i1 %49, label %50, label %52

50:                                               ; preds = %30
  %51 = call zeroext i1 (ptr, ...) @SDL_SetError_REAL(ptr noundef @.str.1)
  store i1 %51, ptr %2, align 1
  store i32 1, ptr %9, align 4
  br label %62

52:                                               ; preds = %30
  %53 = load i64, ptr %7, align 8
  %54 = trunc i64 %53 to i32
  store i32 %54, ptr %8, align 4
  %55 = load ptr, ptr @X11_XChangeProperty, align 8
  %56 = load ptr, ptr %5, align 8
  %57 = load ptr, ptr %4, align 8
  %58 = getelementptr inbounds nuw %struct.SDL_WindowData, ptr %57, i32 0, i32 1
  %59 = load i64, ptr %58, align 8
  %60 = load i64, ptr %6, align 8
  %61 = call i32 %55(ptr noundef %56, i64 noundef %59, i64 noundef %60, i64 noundef 6, i32 noundef 32, i32 noundef 0, ptr noundef %8, i32 noundef 1)
  store i1 true, ptr %2, align 1
  store i32 1, ptr %9, align 4
  br label %62

62:                                               ; preds = %52, %50, %28
  call void @llvm.lifetime.end.p0(i64 4, ptr %8) #3
  call void @llvm.lifetime.end.p0(i64 8, ptr %7) #3
  call void @llvm.lifetime.end.p0(i64 8, ptr %6) #3
  call void @llvm.lifetime.end.p0(i64 8, ptr %5) #3
  call void @llvm.lifetime.end.p0(i64 8, ptr %4) #3
  %63 = load i1, ptr %2, align 1
  ret i1 %63
}