; Function Attrs: nounwind uwtable
define hidden zeroext i1 @X11_InitResizeSync(ptr noundef readonly captures(none) %0) local_unnamed_addr #0 {
  %2 = alloca i32, align 4
  %3 = getelementptr inbounds nuw i8, ptr %0, i64 392
  %4 = load ptr, ptr %3, align 8
  %5 = getelementptr inbounds nuw i8, ptr %4, i64 336
  %6 = load ptr, ptr %5, align 8
  %7 = load ptr, ptr %6, align 8
  %8 = getelementptr inbounds nuw i8, ptr %6, i64 376
  %9 = load i64, ptr %8, align 8
  call void @llvm.lifetime.start.p0(i64 4, ptr nonnull %2) #7
  %.b1.i = load i1, ptr @xsync_initialized, align 1
  br i1 %.b1.i, label %12, label %10

10:                                               ; preds = %1
  %11 = tail call zeroext i1 (ptr, ...) @SDL_SetError_REAL(ptr noundef nonnull @.str.1) #7
  br label %26

12:                                               ; preds = %1
  %13 = load ptr, ptr @X11_XSyncCreateCounter, align 8
  %14 = tail call i64 %13(ptr noundef %7, i64 0) #7
  %15 = getelementptr inbounds nuw i8, ptr %4, i64 448
  store i64 %14, ptr %15, align 8
  %16 = getelementptr inbounds nuw i8, ptr %4, i64 456
  %17 = icmp eq i64 %14, 0
  tail call void @llvm.memset.p0.i64(ptr noundef nonnull align 8 dereferenceable(9) %16, i8 0, i64 9, i1 false)
  br i1 %17, label %18, label %20

18:                                               ; preds = %12
  %19 = tail call zeroext i1 (ptr, ...) @SDL_SetError_REAL(ptr noundef nonnull @.str.1) #7
  br label %26

20:                                               ; preds = %12
  %21 = trunc i64 %14 to i32
  store i32 %21, ptr %2, align 4
  %22 = load ptr, ptr @X11_XChangeProperty, align 8
  %23 = getelementptr inbounds nuw i8, ptr %4, i64 8
  %24 = load i64, ptr %23, align 8
  %25 = call i32 %22(ptr noundef %7, i64 noundef %24, i64 noundef %9, i64 noundef 6, i32 noundef 32, i32 noundef 0, ptr noundef nonnull %2, i32 noundef 1) #7
  br label %26

26:                                               ; preds = %20, %18, %10
  %.0 = phi i1 [ %19, %18 ], [ true, %20 ], [ %11, %10 ]
  call void @llvm.lifetime.end.p0(i64 4, ptr nonnull %2) #7
  ret i1 %.0
}